; ModuleID = '37/374.c'
source_filename = "37/374.c"
target datalayout = "e-m:e-p270:32:32-p271:32:32-p272:64:64-i64:64-f80:128-n8:16:32:64-S128"
target triple = "x86_64-pc-linux-gnu"

@.str = private unnamed_addr constant [4 x i8] c"%d\0A\00", align 1
@.str.1 = private unnamed_addr constant [4 x i8] c"%c\0A\00", align 1
@.str.2 = private unnamed_addr constant [4 x i8] c"no\0A\00", align 1

; Function Attrs: noinline nounwind uwtable
define dso_local i32 @main() #0 {
  %1 = alloca i32, align 4
  %2 = alloca i32, align 4
  %3 = alloca i32, align 4
  %4 = alloca [100000 x i8], align 16
  %5 = alloca i8*, align 8
  %6 = alloca [26 x i32], align 16
  %7 = alloca i32*, align 8
  %8 = alloca i32, align 4
  %9 = alloca i32, align 4
  %10 = alloca i32, align 4
  store i32 0, i32* %1, align 4
  %11 = call i32 (i8*, ...) @__isoc99_scanf(i8* getelementptr inbounds ([4 x i8], [4 x i8]* @.str, i64 0, i64 0), i32* %2)
  store i32 0, i32* %3, align 4
  br label %12

12:                                               ; preds = %92, %0
  %13 = load i32, i32* %3, align 4
  %14 = load i32, i32* %2, align 4
  %15 = icmp slt i32 %13, %14
  br i1 %15, label %16, label %95

16:                                               ; preds = %12
  %17 = bitcast [100000 x i8]* %4 to i8*
  call void @llvm.memset.p0i8.i64(i8* align 16 %17, i8 0, i64 100000, i1 false)
  %18 = getelementptr inbounds [100000 x i8], [100000 x i8]* %4, i64 0, i64 0
  store i8* %18, i8** %5, align 8
  %19 = bitcast [26 x i32]* %6 to i8*
  call void @llvm.memset.p0i8.i64(i8* align 16 %19, i8 0, i64 104, i1 false)
  %20 = getelementptr inbounds [26 x i32], [26 x i32]* %6, i64 0, i64 0
  store i32* %20, i32** %7, align 8
  store i32 0, i32* %8, align 4
  %21 = getelementptr inbounds [100000 x i8], [100000 x i8]* %4, i64 0, i64 0
  %22 = call i32 (i8*, ...) bitcast (i32 (...)* @gets to i32 (i8*, ...)*)(i8* %21)
  %23 = getelementptr inbounds [100000 x i8], [100000 x i8]* %4, i64 0, i64 0
  %24 = call i64 @strlen(i8* %23) #4
  %25 = trunc i64 %24 to i32
  store i32 %25, i32* %9, align 4
  store i32 0, i32* %10, align 4
  br label %26

26:                                               ; preds = %53, %16
  %27 = load i32, i32* %10, align 4
  %28 = load i32, i32* %9, align 4
  %29 = icmp slt i32 %27, %28
  br i1 %29, label %30, label %56

30:                                               ; preds = %26
  %31 = load i32*, i32** %7, align 8
  %32 = load i8*, i8** %5, align 8
  %33 = load i32, i32* %10, align 4
  %34 = sext i32 %33 to i64
  %35 = getelementptr inbounds i8, i8* %32, i64 %34
  %36 = load i8, i8* %35, align 1
  %37 = sext i8 %36 to i32
  %38 = sext i32 %37 to i64
  %39 = getelementptr inbounds i32, i32* %31, i64 %38
  %40 = getelementptr inbounds i32, i32* %39, i64 -97
  %41 = load i32, i32* %40, align 4
  %42 = add nsw i32 %41, 1
  %43 = load i32*, i32** %7, align 8
  %44 = load i8*, i8** %5, align 8
  %45 = load i32, i32* %10, align 4
  %46 = sext i32 %45 to i64
  %47 = getelementptr inbounds i8, i8* %44, i64 %46
  %48 = load i8, i8* %47, align 1
  %49 = sext i8 %48 to i32
  %50 = sext i32 %49 to i64
  %51 = getelementptr inbounds i32, i32* %43, i64 %50
  %52 = getelementptr inbounds i32, i32* %51, i64 -97
  store i32 %42, i32* %52, align 4
  br label %53

53:                                               ; preds = %30
  %54 = load i32, i32* %10, align 4
  %55 = add nsw i32 %54, 1
  store i32 %55, i32* %10, align 4
  br label %26

56:                                               ; preds = %26
  store i32 0, i32* %10, align 4
  br label %57

57:                                               ; preds = %83, %56
  %58 = load i32, i32* %10, align 4
  %59 = load i32, i32* %9, align 4
  %60 = icmp slt i32 %58, %59
  br i1 %60, label %61, label %86

61:                                               ; preds = %57
  %62 = load i32*, i32** %7, align 8
  %63 = load i8*, i8** %5, align 8
  %64 = load i32, i32* %10, align 4
  %65 = sext i32 %64 to i64
  %66 = getelementptr inbounds i8, i8* %63, i64 %65
  %67 = load i8, i8* %66, align 1
  %68 = sext i8 %67 to i32
  %69 = sub nsw i32 %68, 97
  %70 = sext i32 %69 to i64
  %71 = getelementptr inbounds i32, i32* %62, i64 %70
  %72 = load i32, i32* %71, align 4
  %73 = icmp eq i32 %72, 1
  br i1 %73, label %74, label %82

74:                                               ; preds = %61
  %75 = load i8*, i8** %5, align 8
  %76 = load i32, i32* %10, align 4
  %77 = sext i32 %76 to i64
  %78 = getelementptr inbounds i8, i8* %75, i64 %77
  %79 = load i8, i8* %78, align 1
  %80 = sext i8 %79 to i32
  %81 = call i32 (i8*, ...) @printf(i8* getelementptr inbounds ([4 x i8], [4 x i8]* @.str.1, i64 0, i64 0), i32 %80)
  store i32 1, i32* %8, align 4
  br label %86

82:                                               ; preds = %61
  br label %83

83:                                               ; preds = %82
  %84 = load i32, i32* %10, align 4
  %85 = add nsw i32 %84, 1
  store i32 %85, i32* %10, align 4
  br label %57

86:                                               ; preds = %74, %57
  %87 = load i32, i32* %8, align 4
  %88 = icmp eq i32 %87, 0
  br i1 %88, label %89, label %91

89:                                               ; preds = %86
  %90 = call i32 (i8*, ...) @printf(i8* getelementptr inbounds ([4 x i8], [4 x i8]* @.str.2, i64 0, i64 0))
  br label %91

91:                                               ; preds = %89, %86
  br label %92

92:                                               ; preds = %91
  %93 = load i32, i32* %3, align 4
  %94 = add nsw i32 %93, 1
  store i32 %94, i32* %3, align 4
  br label %12

95:                                               ; preds = %12
  ret i32 0
}

declare dso_local i32 @__isoc99_scanf(i8*, ...) #1

; Function Attrs: argmemonly nounwind willreturn
declare void @llvm.memset.p0i8.i64(i8* nocapture writeonly, i8, i64, i1 immarg) #2

declare dso_local i32 @gets(...) #1

; Function Attrs: nounwind readonly
declare dso_local i64 @strlen(i8*) #3

declare dso_local i32 @printf(i8*, ...) #1


!llvm.module.flags = !{!0}
!llvm.ident = !{!1}

!0 = !{i32 1, !"wchar_size", i32 4}
!1 = !{!"clang version 10.0.0-4ubuntu1 "}
